#include <math.h>
#include <stdio.h>
#include <stdlib.h>
#include <string.h>

int main(){
    int n,i,k,h[50];
    char s[50][255],sz[50][255];
    scanf("%d",&n);
    for(i=0; i<n; i++){    
         scanf("%s", s[i]);
         h[i]=strlen(s[i]);
                     }
    for(i=0;i<n;i++){
    if(s[i][h[i]-1]=='r'){for(k=0;k<h[i]-2;k++){sz[i][k]=s[i][k];}}
    if(s[i][h[i]-1]=='y'){for(k=0;k<h[i]-2;k++){sz[i][k]=s[i][k];}}
    if(s[i][h[i]-1]=='g'){for(k=0;k<h[i]-3;k++){sz[i][k]=s[i][k];}}
}
     for(i=0;i<n;i++){
                      puts(sz[i]);}
                      return 0;
                      }
