; ModuleID = '57/728.c'
source_filename = "57/728.c"
target datalayout = "e-m:e-p270:32:32-p271:32:32-p272:64:64-i64:64-f80:128-n8:16:32:64-S128"
target triple = "x86_64-pc-linux-gnu"

@.str = private unnamed_addr constant [3 x i8] c"%d\00", align 1
@.str.1 = private unnamed_addr constant [3 x i8] c"%s\00", align 1

; Function Attrs: noinline nounwind uwtable
define dso_local i32 @main() #0 {
  %1 = alloca i32, align 4
  %2 = alloca i32, align 4
  %3 = alloca i32, align 4
  %4 = alloca i32, align 4
  %5 = alloca [50 x i32], align 16
  %6 = alloca [50 x [255 x i8]], align 16
  %7 = alloca [50 x [255 x i8]], align 16
  store i32 0, i32* %1, align 4
  %8 = call i32 (i8*, ...) @__isoc99_scanf(i8* getelementptr inbounds ([3 x i8], [3 x i8]* @.str, i64 0, i64 0), i32* %2)
  store i32 0, i32* %3, align 4
  br label %9

9:                                                ; preds = %28, %0
  %10 = load i32, i32* %3, align 4
  %11 = load i32, i32* %2, align 4
  %12 = icmp slt i32 %10, %11
  br i1 %12, label %13, label %31

13:                                               ; preds = %9
  %14 = load i32, i32* %3, align 4
  %15 = sext i32 %14 to i64
  %16 = getelementptr inbounds [50 x [255 x i8]], [50 x [255 x i8]]* %6, i64 0, i64 %15
  %17 = getelementptr inbounds [255 x i8], [255 x i8]* %16, i64 0, i64 0
  %18 = call i32 (i8*, ...) @__isoc99_scanf(i8* getelementptr inbounds ([3 x i8], [3 x i8]* @.str.1, i64 0, i64 0), i8* %17)
  %19 = load i32, i32* %3, align 4
  %20 = sext i32 %19 to i64
  %21 = getelementptr inbounds [50 x [255 x i8]], [50 x [255 x i8]]* %6, i64 0, i64 %20
  %22 = getelementptr inbounds [255 x i8], [255 x i8]* %21, i64 0, i64 0
  %23 = call i64 @strlen(i8* %22) #3
  %24 = trunc i64 %23 to i32
  %25 = load i32, i32* %3, align 4
  %26 = sext i32 %25 to i64
  %27 = getelementptr inbounds [50 x i32], [50 x i32]* %5, i64 0, i64 %26
  store i32 %24, i32* %27, align 4
  br label %28

28:                                               ; preds = %13
  %29 = load i32, i32* %3, align 4
  %30 = add nsw i32 %29, 1
  store i32 %30, i32* %3, align 4
  br label %9

31:                                               ; preds = %9
  store i32 0, i32* %3, align 4
  br label %32

32:                                               ; preds = %160, %31
  %33 = load i32, i32* %3, align 4
  %34 = load i32, i32* %2, align 4
  %35 = icmp slt i32 %33, %34
  br i1 %35, label %36, label %163

36:                                               ; preds = %32
  %37 = load i32, i32* %3, align 4
  %38 = sext i32 %37 to i64
  %39 = getelementptr inbounds [50 x [255 x i8]], [50 x [255 x i8]]* %6, i64 0, i64 %38
  %40 = load i32, i32* %3, align 4
  %41 = sext i32 %40 to i64
  %42 = getelementptr inbounds [50 x i32], [50 x i32]* %5, i64 0, i64 %41
  %43 = load i32, i32* %42, align 4
  %44 = sub nsw i32 %43, 1
  %45 = sext i32 %44 to i64
  %46 = getelementptr inbounds [255 x i8], [255 x i8]* %39, i64 0, i64 %45
  %47 = load i8, i8* %46, align 1
  %48 = sext i8 %47 to i32
  %49 = icmp eq i32 %48, 114
  br i1 %49, label %50, label %77

50:                                               ; preds = %36
  store i32 0, i32* %4, align 4
  br label %51

51:                                               ; preds = %73, %50
  %52 = load i32, i32* %4, align 4
  %53 = load i32, i32* %3, align 4
  %54 = sext i32 %53 to i64
  %55 = getelementptr inbounds [50 x i32], [50 x i32]* %5, i64 0, i64 %54
  %56 = load i32, i32* %55, align 4
  %57 = sub nsw i32 %56, 2
  %58 = icmp slt i32 %52, %57
  br i1 %58, label %59, label %76

59:                                               ; preds = %51
  %60 = load i32, i32* %3, align 4
  %61 = sext i32 %60 to i64
  %62 = getelementptr inbounds [50 x [255 x i8]], [50 x [255 x i8]]* %6, i64 0, i64 %61
  %63 = load i32, i32* %4, align 4
  %64 = sext i32 %63 to i64
  %65 = getelementptr inbounds [255 x i8], [255 x i8]* %62, i64 0, i64 %64
  %66 = load i8, i8* %65, align 1
  %67 = load i32, i32* %3, align 4
  %68 = sext i32 %67 to i64
  %69 = getelementptr inbounds [50 x [255 x i8]], [50 x [255 x i8]]* %7, i64 0, i64 %68
  %70 = load i32, i32* %4, align 4
  %71 = sext i32 %70 to i64
  %72 = getelementptr inbounds [255 x i8], [255 x i8]* %69, i64 0, i64 %71
  store i8 %66, i8* %72, align 1
  br label %73

73:                                               ; preds = %59
  %74 = load i32, i32* %4, align 4
  %75 = add nsw i32 %74, 1
  store i32 %75, i32* %4, align 4
  br label %51

76:                                               ; preds = %51
  br label %77

77:                                               ; preds = %76, %36
  %78 = load i32, i32* %3, align 4
  %79 = sext i32 %78 to i64
  %80 = getelementptr inbounds [50 x [255 x i8]], [50 x [255 x i8]]* %6, i64 0, i64 %79
  %81 = load i32, i32* %3, align 4
  %82 = sext i32 %81 to i64
  %83 = getelementptr inbounds [50 x i32], [50 x i32]* %5, i64 0, i64 %82
  %84 = load i32, i32* %83, align 4
  %85 = sub nsw i32 %84, 1
  %86 = sext i32 %85 to i64
  %87 = getelementptr inbounds [255 x i8], [255 x i8]* %80, i64 0, i64 %86
  %88 = load i8, i8* %87, align 1
  %89 = sext i8 %88 to i32
  %90 = icmp eq i32 %89, 121
  br i1 %90, label %91, label %118

91:                                               ; preds = %77
  store i32 0, i32* %4, align 4
  br label %92

92:                                               ; preds = %114, %91
  %93 = load i32, i32* %4, align 4
  %94 = load i32, i32* %3, align 4
  %95 = sext i32 %94 to i64
  %96 = getelementptr inbounds [50 x i32], [50 x i32]* %5, i64 0, i64 %95
  %97 = load i32, i32* %96, align 4
  %98 = sub nsw i32 %97, 2
  %99 = icmp slt i32 %93, %98
  br i1 %99, label %100, label %117

100:                                              ; preds = %92
  %101 = load i32, i32* %3, align 4
  %102 = sext i32 %101 to i64
  %103 = getelementptr inbounds [50 x [255 x i8]], [50 x [255 x i8]]* %6, i64 0, i64 %102
  %104 = load i32, i32* %4, align 4
  %105 = sext i32 %104 to i64
  %106 = getelementptr inbounds [255 x i8], [255 x i8]* %103, i64 0, i64 %105
  %107 = load i8, i8* %106, align 1
  %108 = load i32, i32* %3, align 4
  %109 = sext i32 %108 to i64
  %110 = getelementptr inbounds [50 x [255 x i8]], [50 x [255 x i8]]* %7, i64 0, i64 %109
  %111 = load i32, i32* %4, align 4
  %112 = sext i32 %111 to i64
  %113 = getelementptr inbounds [255 x i8], [255 x i8]* %110, i64 0, i64 %112
  store i8 %107, i8* %113, align 1
  br label %114

114:                                              ; preds = %100
  %115 = load i32, i32* %4, align 4
  %116 = add nsw i32 %115, 1
  store i32 %116, i32* %4, align 4
  br label %92

117:                                              ; preds = %92
  br label %118

118:                                              ; preds = %117, %77
  %119 = load i32, i32* %3, align 4
  %120 = sext i32 %119 to i64
  %121 = getelementptr inbounds [50 x [255 x i8]], [50 x [255 x i8]]* %6, i64 0, i64 %120
  %122 = load i32, i32* %3, align 4
  %123 = sext i32 %122 to i64
  %124 = getelementptr inbounds [50 x i32], [50 x i32]* %5, i64 0, i64 %123
  %125 = load i32, i32* %124, align 4
  %126 = sub nsw i32 %125, 1
  %127 = sext i32 %126 to i64
  %128 = getelementptr inbounds [255 x i8], [255 x i8]* %121, i64 0, i64 %127
  %129 = load i8, i8* %128, align 1
  %130 = sext i8 %129 to i32
  %131 = icmp eq i32 %130, 103
  br i1 %131, label %132, label %159

132:                                              ; preds = %118
  store i32 0, i32* %4, align 4
  br label %133

133:                                              ; preds = %155, %132
  %134 = load i32, i32* %4, align 4
  %135 = load i32, i32* %3, align 4
  %136 = sext i32 %135 to i64
  %137 = getelementptr inbounds [50 x i32], [50 x i32]* %5, i64 0, i64 %136
  %138 = load i32, i32* %137, align 4
  %139 = sub nsw i32 %138, 3
  %140 = icmp slt i32 %134, %139
  br i1 %140, label %141, label %158

141:                                              ; preds = %133
  %142 = load i32, i32* %3, align 4
  %143 = sext i32 %142 to i64
  %144 = getelementptr inbounds [50 x [255 x i8]], [50 x [255 x i8]]* %6, i64 0, i64 %143
  %145 = load i32, i32* %4, align 4
  %146 = sext i32 %145 to i64
  %147 = getelementptr inbounds [255 x i8], [255 x i8]* %144, i64 0, i64 %146
  %148 = load i8, i8* %147, align 1
  %149 = load i32, i32* %3, align 4
  %150 = sext i32 %149 to i64
  %151 = getelementptr inbounds [50 x [255 x i8]], [50 x [255 x i8]]* %7, i64 0, i64 %150
  %152 = load i32, i32* %4, align 4
  %153 = sext i32 %152 to i64
  %154 = getelementptr inbounds [255 x i8], [255 x i8]* %151, i64 0, i64 %153
  store i8 %148, i8* %154, align 1
  br label %155

155:                                              ; preds = %141
  %156 = load i32, i32* %4, align 4
  %157 = add nsw i32 %156, 1
  store i32 %157, i32* %4, align 4
  br label %133

158:                                              ; preds = %133
  br label %159

159:                                              ; preds = %158, %118
  br label %160

160:                                              ; preds = %159
  %161 = load i32, i32* %3, align 4
  %162 = add nsw i32 %161, 1
  store i32 %162, i32* %3, align 4
  br label %32

163:                                              ; preds = %32
  store i32 0, i32* %3, align 4
  br label %164

164:                                              ; preds = %174, %163
  %165 = load i32, i32* %3, align 4
  %166 = load i32, i32* %2, align 4
  %167 = icmp slt i32 %165, %166
  br i1 %167, label %168, label %177

168:                                              ; preds = %164
  %169 = load i32, i32* %3, align 4
  %170 = sext i32 %169 to i64
  %171 = getelementptr inbounds [50 x [255 x i8]], [50 x [255 x i8]]* %7, i64 0, i64 %170
  %172 = getelementptr inbounds [255 x i8], [255 x i8]* %171, i64 0, i64 0
  %173 = call i32 @puts(i8* %172)
  br label %174

174:                                              ; preds = %168
  %175 = load i32, i32* %3, align 4
  %176 = add nsw i32 %175, 1
  store i32 %176, i32* %3, align 4
  br label %164

177:                                              ; preds = %164
  ret i32 0
}

declare dso_local i32 @__isoc99_scanf(i8*, ...) #1

; Function Attrs: nounwind readonly
declare dso_local i64 @strlen(i8*) #2

declare dso_local i32 @puts(i8*) #1


!llvm.module.flags = !{!0}
!llvm.ident = !{!1}

!0 = !{i32 1, !"wchar_size", i32 4}
!1 = !{!"clang version 10.0.0-4ubuntu1 "}
